Certificate:
    Data:
        Version: 3 (0x2)
        Serial Number: 0 (0x0)
    Signature Algorithm: sha256WithRSAEncryption
        Issuer: C=US, ST=New York, L=Brooklyn, O=Leftslash, LLC, OU=Certificate Authority, CN=localhost
        Validity
            Not Before: Mar 22 21:25:23 2019 GMT
            Not After : Mar 19 21:25:23 2029 GMT
        Subject: C=US, ST=New York, L=Brooklyn, O=Leftslash, LLC, OU=Secure Website, CN=localhost
        Subject Public Key Info:
            Public Key Algorithm: rsaEncryption
                Public-Key: (4096 bit)
                Modulus:
                    00:b3:8e:84:10:cb:27:f0:56:c9:46:8c:93:07:31:
                    d9:eb:5c:88:5c:54:90:fb:ad:3a:74:69:3c:b5:d3:
                    40:a0:21:a4:ba:68:63:78:b0:06:3f:69:92:28:e2:
                    e6:10:dc:92:7f:ff:7e:ca:8c:87:1f:d0:ab:c5:2a:
                    8c:0a:df:42:9e:53:3d:fc:62:00:b2:c5:f3:8a:3a:
                    8a:62:fb:49:37:d1:e5:57:63:a4:26:de:e5:91:26:
                    92:14:5a:23:24:ca:0b:2d:e0:8c:97:2a:bb:e0:13:
                    1f:74:67:86:59:4f:c9:70:ed:e1:9b:6a:c4:f2:1c:
                    1a:46:6b:f9:b3:d6:7d:2c:24:c2:5e:3a:77:f2:af:
                    e9:64:8c:97:ce:12:2a:6c:05:d0:4f:9e:d7:96:d5:
                    68:fd:1a:e2:d8:65:ec:49:1f:67:e0:ba:7a:85:4a:
                    2d:b6:55:d0:c5:53:27:3b:3b:54:20:7f:c0:bc:88:
                    61:5c:f5:2e:4c:20:29:48:24:91:17:9d:78:c7:aa:
                    cc:69:3a:9a:1e:6b:09:57:d1:03:86:07:d3:b5:e4:
                    42:b2:cf:4e:c8:8d:68:0d:c2:09:77:25:69:8c:c5:
                    42:22:26:31:af:e3:3b:a6:07:07:08:93:cc:5a:4f:
                    65:0f:49:b5:96:20:17:d9:7d:0e:36:d3:c9:c8:4d:
                    f1:a8:66:e2:a3:c6:2e:11:67:34:d0:de:5c:c5:9d:
                    9b:29:a2:b6:64:9a:f9:4a:56:28:ad:2e:21:37:d0:
                    69:40:da:0f:f7:ec:44:aa:f2:42:2e:94:2f:f2:9f:
                    74:ff:ea:24:68:e7:20:75:2a:eb:4e:8e:c9:8c:ec:
                    7a:de:85:9e:7b:cd:a4:80:57:0f:dd:96:40:99:73:
                    e7:5d:18:01:84:9a:f2:7a:a7:7e:52:8a:a6:38:00:
                    f6:fe:c1:84:9d:98:7f:14:8a:00:98:43:3f:ee:ec:
                    42:88:ee:a5:1f:d7:35:6f:56:50:15:f0:55:da:d1:
                    54:26:6b:1a:30:7b:96:57:a2:68:7b:05:f9:50:32:
                    01:91:ef:d8:8d:4f:bf:26:95:7f:b6:64:b6:00:d9:
                    19:2e:08:bc:44:e7:93:f4:2c:d7:60:e3:77:c7:54:
                    4d:17:93:a7:9f:e5:87:ff:ce:80:f5:f0:20:e1:8a:
                    20:9a:de:b0:cb:5d:bf:19:7a:3e:11:95:c0:ef:3c:
                    cc:33:4e:d1:f8:b7:4b:70:c4:52:70:ac:b0:9d:9b:
                    53:22:2a:6f:10:ba:a5:28:75:52:77:48:19:92:6b:
                    67:49:42:91:e8:1c:eb:ab:de:ee:98:53:99:3a:96:
                    eb:81:eb:61:1c:e2:46:43:c8:d1:a9:a4:ac:6b:5b:
                    37:0d:d9
                Exponent: 65537 (0x10001)
        X509v3 extensions:
            X509v3 Basic Constraints: 
                CA:FALSE
            X509v3 Key Usage: 
                Digital Signature, Non Repudiation, Key Encipherment
            X509v3 Subject Alternative Name: 
                DNS:www.local, DNS:test.local, DNS:demo.local
    Signature Algorithm: sha256WithRSAEncryption
         a5:45:81:39:80:65:9f:32:fc:97:bd:84:6e:f4:3a:4a:81:09:
         dd:b9:9f:68:48:3b:13:3b:a5:1a:73:b6:87:e8:0e:31:4b:82:
         48:ac:99:c9:21:58:de:fe:4e:76:f8:9f:c2:95:51:a1:92:6d:
         0a:ab:94:6b:21:0e:3d:76:cd:1a:47:48:99:bf:d2:eb:38:2f:
         00:56:b7:65:98:91:d7:c2:aa:cf:8d:21:13:52:90:dd:c0:d4:
         98:6f:0d:14:83:6e:c2:54:2f:bc:9e:56:c3:16:9f:44:a2:b4:
         bc:a6:f9:18:0e:34:5b:30:a5:25:1c:93:ab:85:de:6a:b6:fb:
         89:fd:69:48:b7:10:f8:e8:31:fe:97:8b:f7:66:8b:47:75:7f:
         d8:81:aa:75:63:5d:e2:cd:b0:b6:35:c7:50:15:84:bf:86:ce:
         39:63:03:33:3e:d9:65:5e:2a:03:04:f9:1a:2e:81:63:19:ad:
         54:13:21:26:ef:59:a4:c0:9a:54:39:56:4c:c0:ba:43:40:27:
         19:b9:0b:c5:9b:10:c7:6c:81:4f:83:b9:bc:f0:5b:9b:22:99:
         9e:25:a4:52:2c:ef:75:26:b5:aa:61:5e:a9:41:3a:78:22:22:
         35:f6:09:8b:69:1f:2d:c9:eb:29:54:2a:19:5d:cf:b8:80:d0:
         fb:53:82:91:09:b5:23:56:ad:dc:a6:f5:83:df:fe:fc:66:e1:
         3f:5a:d7:4b:a9:46:35:6d:17:1c:31:35:2f:8f:8d:ec:42:30:
         74:78:4d:c7:90:5a:27:e8:dd:56:5b:2a:ae:88:d9:d8:7b:7a:
         55:b3:7c:45:81:b6:4f:61:cf:0e:fb:30:96:fe:86:df:1b:ae:
         51:e8:57:a6:79:b0:7b:4f:77:0d:c7:c8:43:49:48:9b:80:e3:
         4f:40:5d:08:c4:72:32:92:0c:4c:9d:98:70:1b:73:15:e8:60:
         e9:5a:52:5d:bb:14:03:bf:1e:fb:9f:5c:a5:97:e8:77:7f:8b:
         6c:d6:07:1a:37:88:51:df:9b:47:88:8e:a6:ad:8c:ed:96:13:
         b7:cc:f3:df:a4:1f:92:85:29:43:95:37:e9:fb:69:1f:34:44:
         65:5a:8a:65:ec:71:39:f0:a1:ea:9e:f6:75:f4:78:40:82:df:
         06:82:dd:95:79:77:ad:63:0c:c2:ba:a9:25:a7:06:08:a2:fc:
         01:a4:67:1d:bd:fd:37:44:fb:d2:bd:2e:4e:2b:bf:f4:4c:79:
         a2:3a:48:64:bc:86:46:96:d6:5e:47:90:92:48:55:91:9b:ff:
         a7:32:48:08:94:fc:dc:6e:26:0c:13:bd:2a:f9:08:6a:c8:c5:
         58:97:4e:5d:58:02:7a:74
-----BEGIN CERTIFICATE-----
MIIFvTCCA6WgAwIBAgIBADANBgkqhkiG9w0BAQsFADCBgDELMAkGA1UEBhMCVVMx
ETAPBgNVBAgMCE5ldyBZb3JrMREwDwYDVQQHDAhCcm9va2x5bjEXMBUGA1UECgwO
TGVmdHNsYXNoLCBMTEMxHjAcBgNVBAsMFUNlcnRpZmljYXRlIEF1dGhvcml0eTES
MBAGA1UEAwwJbG9jYWxob3N0MB4XDTE5MDMyMjIxMjUyM1oXDTI5MDMxOTIxMjUy
M1oweTELMAkGA1UEBhMCVVMxETAPBgNVBAgMCE5ldyBZb3JrMREwDwYDVQQHDAhC
cm9va2x5bjEXMBUGA1UECgwOTGVmdHNsYXNoLCBMTEMxFzAVBgNVBAsMDlNlY3Vy
ZSBXZWJzaXRlMRIwEAYDVQQDDAlsb2NhbGhvc3QwggIiMA0GCSqGSIb3DQEBAQUA
A4ICDwAwggIKAoICAQCzjoQQyyfwVslGjJMHMdnrXIhcVJD7rTp0aTy100CgIaS6
aGN4sAY/aZIo4uYQ3JJ//37KjIcf0KvFKowK30KeUz38YgCyxfOKOopi+0k30eVX
Y6Qm3uWRJpIUWiMkygst4IyXKrvgEx90Z4ZZT8lw7eGbasTyHBpGa/mz1n0sJMJe
Onfyr+lkjJfOEipsBdBPnteW1Wj9GuLYZexJH2fgunqFSi22VdDFUyc7O1Qgf8C8
iGFc9S5MIClIJJEXnXjHqsxpOpoeawlX0QOGB9O15EKyz07IjWgNwgl3JWmMxUIi
JjGv4zumBwcIk8xaT2UPSbWWIBfZfQ4208nITfGoZuKjxi4RZzTQ3lzFnZsporZk
mvlKViitLiE30GlA2g/37ESq8kIulC/yn3T/6iRo5yB1KutOjsmM7HrehZ57zaSA
Vw/dlkCZc+ddGAGEmvJ6p35SiqY4APb+wYSdmH8UigCYQz/u7EKI7qUf1zVvVlAV
8FXa0VQmaxowe5ZXomh7BflQMgGR79iNT78mlX+2ZLYA2RkuCLxE55P0LNdg43fH
VE0Xk6ef5Yf/zoD18CDhiiCa3rDLXb8Zej4RlcDvPMwzTtH4t0twxFJwrLCdm1Mi
Km8QuqUodVJ3SBmSa2dJQpHoHOur3u6YU5k6luuB62Ec4kZDyNGppKxrWzcN2QID
AQABo0gwRjAJBgNVHRMEAjAAMAsGA1UdDwQEAwIF4DAsBgNVHREEJTAjggl3d3cu
bG9jYWyCCnRlc3QubG9jYWyCCmRlbW8ubG9jYWwwDQYJKoZIhvcNAQELBQADggIB
AKVFgTmAZZ8y/Je9hG70OkqBCd25n2hIOxM7pRpztofoDjFLgkismckhWN7+Tnb4
n8KVUaGSbQqrlGshDj12zRpHSJm/0us4LwBWt2WYkdfCqs+NIRNSkN3A1JhvDRSD
bsJUL7yeVsMWn0SitLym+RgONFswpSUck6uF3mq2+4n9aUi3EPjoMf6Xi/dmi0d1
f9iBqnVjXeLNsLY1x1AVhL+GzjljAzM+2WVeKgME+RougWMZrVQTISbvWaTAmlQ5
VkzAukNAJxm5C8WbEMdsgU+DubzwW5simZ4lpFIs73UmtaphXqlBOngiIjX2CYtp
Hy3J6ylUKhldz7iA0PtTgpEJtSNWrdym9YPf/vxm4T9a10upRjVtFxwxNS+PjexC
MHR4TceQWifo3VZbKq6I2dh7elWzfEWBtk9hzw77MJb+ht8brlHoV6Z5sHtPdw3H
yENJSJuA409AXQjEcjKSDEydmHAbcxXoYOlaUl27FAO/HvufXKWX6Hd/i2zWBxo3
iFHfm0eIjqatjO2WE7fM89+kH5KFKUOVN+n7aR80RGVaimXscTnwoeqe9nX0eECC
3waC3ZV5d61jDMK6qSWnBgii/AGkZx29/TdE+9K9Lk4rv/RMeaI6SGS8hkaW1l5H
kJJIVZGb/6cySAiU/NxuJgwTvSr5CGrIxViXTl1YAnp0
-----END CERTIFICATE-----
